; Function Attrs: nounwind sspstrong uwtable
define internal noundef i64 @s_absolute_path(i32 noundef %0, ptr noundef readonly captures(none) %1, i64 %2) #0 {
  %4 = add i32 %0, -3
  %or.cond.i = icmp ult i32 %4, -2
  br i1 %or.cond.i, label %5, label %rb_check_arity.exit.i

5:                                                ; preds = %3
  tail call void @rb_error_arity(i32 noundef %0, i32 noundef 1, i32 noundef 2) #24
  unreachable

rb_check_arity.exit.i:                            ; preds = %3
  %6 = load i64, ptr %1, align 8, !tbaa !12
  %7 = icmp samesign ugt i32 %0, 1
  br i1 %7, label %8, label %rb_file_s_absolute_path.exit

8:                                                ; preds = %rb_check_arity.exit.i
  %9 = getelementptr i8, ptr %1, i64 8
  %10 = load i64, ptr %9, align 8, !tbaa !12
  br label %rb_file_s_absolute_path.exit

rb_file_s_absolute_path.exit:                     ; preds = %rb_check_arity.exit.i, %8
  %11 = phi i64 [ %10, %8 ], [ 4, %rb_check_arity.exit.i ]
  %12 = tail call noundef i64 @rb_file_absolute_path(i64 noundef %6, i64 noundef %11)
  ret i64 %12
}